
user:     file format elf32-i386


Disassembly of section .text.main:

00100000 <main>:
  100000:	55                   	push   %ebp
  100001:	89 e5                	mov    %esp,%ebp
  100003:	83 ec 10             	sub    $0x10,%esp
  100006:	c7 45 fc 4b 00 00 00 	movl   $0x4b,-0x4(%ebp)
  10000d:	c7 45 f8 00 00 00 00 	movl   $0x0,-0x8(%ebp)
  100014:	ff 75 fc             	pushl  -0x4(%ebp)
  100017:	e8 4f 00 00 00       	call   10006b <outer>
  10001c:	83 c4 04             	add    $0x4,%esp
  10001f:	89 45 f8             	mov    %eax,-0x8(%ebp)
  100022:	eb fe                	jmp    100022 <main+0x22>

Disassembly of section .text:

00100030 <add>:
  100030:	55                   	push   %ebp
  100031:	89 e5                	mov    %esp,%ebp
  100033:	8b 55 08             	mov    0x8(%ebp),%edx
  100036:	8b 45 0c             	mov    0xc(%ebp),%eax
  100039:	01 d0                	add    %edx,%eax
  10003b:	90                   	nop
  10003c:	5d                   	pop    %ebp
  10003d:	c3                   	ret    

0010003e <inner>:
  10003e:	55                   	push   %ebp
  10003f:	89 e5                	mov    %esp,%ebp
  100041:	83 ec 10             	sub    $0x10,%esp
  100044:	c7 45 f8 00 00 00 00 	movl   $0x0,-0x8(%ebp)
  10004b:	c7 45 fc 00 00 00 00 	movl   $0x0,-0x4(%ebp)
  100052:	eb 0a                	jmp    10005e <inner+0x20>
  100054:	8b 45 fc             	mov    -0x4(%ebp),%eax
  100057:	01 45 f8             	add    %eax,-0x8(%ebp)
  10005a:	83 45 fc 01          	addl   $0x1,-0x4(%ebp)
  10005e:	8b 45 fc             	mov    -0x4(%ebp),%eax
  100061:	3b 45 08             	cmp    0x8(%ebp),%eax
  100064:	7c ee                	jl     100054 <inner+0x16>
  100066:	8b 45 f8             	mov    -0x8(%ebp),%eax
  100069:	c9                   	leave  
  10006a:	c3                   	ret    

0010006b <outer>:
  10006b:	55                   	push   %ebp
  10006c:	89 e5                	mov    %esp,%ebp
  10006e:	83 ec 10             	sub    $0x10,%esp
  100071:	c7 45 f8 00 00 00 00 	movl   $0x0,-0x8(%ebp)
  100078:	c7 45 fc 00 00 00 00 	movl   $0x0,-0x4(%ebp)
  10007f:	eb 12                	jmp    100093 <outer+0x28>
  100081:	ff 75 fc             	pushl  -0x4(%ebp)
  100084:	e8 b5 ff ff ff       	call   10003e <inner>
  100089:	83 c4 04             	add    $0x4,%esp
  10008c:	01 45 f8             	add    %eax,-0x8(%ebp)
  10008f:	83 45 fc 01          	addl   $0x1,-0x4(%ebp)
  100093:	8b 45 fc             	mov    -0x4(%ebp),%eax
  100096:	3b 45 08             	cmp    0x8(%ebp),%eax
  100099:	7c e6                	jl     100081 <outer+0x16>
  10009b:	8b 45 f8             	mov    -0x8(%ebp),%eax
  10009e:	c9                   	leave  
  10009f:	c3                   	ret    

001000a0 <itoa>:
  1000a0:	55                   	push   %ebp
  1000a1:	89 e5                	mov    %esp,%ebp
  1000a3:	57                   	push   %edi
  1000a4:	56                   	push   %esi
  1000a5:	8b 75 08             	mov    0x8(%ebp),%esi
  1000a8:	53                   	push   %ebx
  1000a9:	8b 5d 0c             	mov    0xc(%ebp),%ebx
  1000ac:	83 fe 00             	cmp    $0x0,%esi
  1000af:	74 77                	je     100128 <itoa+0x88>
  1000b1:	b9 00 00 00 00       	mov    $0x0,%ecx
  1000b6:	bf 67 66 66 66       	mov    $0x66666667,%edi
  1000bb:	7e 77                	jle    100134 <itoa+0x94>
  1000bd:	8d 76 00             	lea    0x0(%esi),%esi
  1000c0:	89 f0                	mov    %esi,%eax
  1000c2:	f7 ef                	imul   %edi
  1000c4:	89 f0                	mov    %esi,%eax
  1000c6:	c1 f8 1f             	sar    $0x1f,%eax
  1000c9:	c1 fa 02             	sar    $0x2,%edx
  1000cc:	29 c2                	sub    %eax,%edx
  1000ce:	8d 04 92             	lea    (%edx,%edx,4),%eax
  1000d1:	01 c0                	add    %eax,%eax
  1000d3:	29 c6                	sub    %eax,%esi
  1000d5:	8d 46 30             	lea    0x30(%esi),%eax
  1000d8:	89 d6                	mov    %edx,%esi
  1000da:	88 04 0b             	mov    %al,(%ebx,%ecx,1)
  1000dd:	83 c1 01             	add    $0x1,%ecx
  1000e0:	85 d2                	test   %edx,%edx
  1000e2:	75 dc                	jne    1000c0 <itoa+0x20>
  1000e4:	89 cf                	mov    %ecx,%edi
  1000e6:	d1 ff                	sar    %edi
  1000e8:	74 4e                	je     100138 <itoa+0x98>
  1000ea:	8d 54 0b ff          	lea    -0x1(%ebx,%ecx,1),%edx
  1000ee:	89 d8                	mov    %ebx,%eax
  1000f0:	89 ce                	mov    %ecx,%esi
  1000f2:	01 df                	add    %ebx,%edi
  1000f4:	89 5d 0c             	mov    %ebx,0xc(%ebp)
  1000f7:	89 f6                	mov    %esi,%esi
  1000f9:	8d bc 27 00 00 00 00 	lea    0x0(%edi,%eiz,1),%edi
  100100:	0f b6 1a             	movzbl (%edx),%ebx
  100103:	0f b6 08             	movzbl (%eax),%ecx
  100106:	83 c0 01             	add    $0x1,%eax
  100109:	83 ea 01             	sub    $0x1,%edx
  10010c:	88 58 ff             	mov    %bl,-0x1(%eax)
  10010f:	88 4a 01             	mov    %cl,0x1(%edx)
  100112:	39 c7                	cmp    %eax,%edi
  100114:	75 ea                	jne    100100 <itoa+0x60>
  100116:	8b 5d 0c             	mov    0xc(%ebp),%ebx
  100119:	c6 04 33 00          	movb   $0x0,(%ebx,%esi,1)
  10011d:	5b                   	pop    %ebx
  10011e:	5e                   	pop    %esi
  10011f:	5f                   	pop    %edi
  100120:	5d                   	pop    %ebp
  100121:	c3                   	ret    
  100122:	8d b6 00 00 00 00    	lea    0x0(%esi),%esi
  100128:	c6 03 30             	movb   $0x30,(%ebx)
  10012b:	c6 43 01 00          	movb   $0x0,0x1(%ebx)
  10012f:	5b                   	pop    %ebx
  100130:	5e                   	pop    %esi
  100131:	5f                   	pop    %edi
  100132:	5d                   	pop    %ebp
  100133:	c3                   	ret    
  100134:	31 f6                	xor    %esi,%esi
  100136:	eb e1                	jmp    100119 <itoa+0x79>
  100138:	be 01 00 00 00       	mov    $0x1,%esi
  10013d:	eb da                	jmp    100119 <itoa+0x79>
  10013f:	90                   	nop

00100140 <strlen>:
  100140:	55                   	push   %ebp
  100141:	31 c0                	xor    %eax,%eax
  100143:	89 e5                	mov    %esp,%ebp
  100145:	8b 55 08             	mov    0x8(%ebp),%edx
  100148:	80 3a 00             	cmpb   $0x0,(%edx)
  10014b:	74 0c                	je     100159 <strlen+0x19>
  10014d:	8d 76 00             	lea    0x0(%esi),%esi
  100150:	83 c0 01             	add    $0x1,%eax
  100153:	80 3c 02 00          	cmpb   $0x0,(%edx,%eax,1)
  100157:	75 f7                	jne    100150 <strlen+0x10>
  100159:	5d                   	pop    %ebp
  10015a:	c3                   	ret    
